target datalayout = "e-m:e-p270:32:32-p271:32:32-p272:64:64-i64:64-i128:128-f80:128-n8:16:32:64-S128"
target triple = "x86_64-pc-linux-gnu"

%struct._asn1_ctx_t = type { i32, i32, i8, ptr, ptr, ptr, ptr, ptr, %struct.anon, %struct.anon.2, %struct.anon.3, ptr }
%struct.anon = type { i32, i8, i8, i8, ptr, ptr, i32, i32, ptr, ptr, ptr, %union.anon }
%union.anon = type { %struct.anon.0 }
%struct.anon.0 = type { ptr }
%struct.anon.2 = type { ptr, ptr, ptr }
%struct.anon.3 = type { i32, i8, ptr, i32, i32, ptr, ptr, ptr, %union.anon.4 }
%union.anon.4 = type { %struct.anon.5 }
%struct.anon.5 = type { ptr }
%struct._packet_info = type { ptr, ptr, i32, i32, %struct.nstime_t, %struct.nstime_t, %struct.nstime_t, i8, ptr, ptr, ptr, ptr, %struct._address, %struct._address, %struct._address, %struct._address, %struct._address, %struct._address, i32, ptr, i8, [3 x i8], %struct.anon.7, i32, i32, i32, i32, ptr, i8, ptr, ptr, i16, i16, i32, i32, i16, i32, i32, ptr, ptr, ptr, i8, i8, i16, i16, i16, i32, i16, i16, ptr, ptr, ptr, ptr, ptr, i32, i32 }
%struct.nstime_t = type { i64, i32 }
%struct._address = type { i32, i32, ptr, ptr }
%struct.anon.7 = type { i8, [3 x i8] }
%struct.p1_address_ctx = type { i8, ptr, i8, ptr }

@proto_p1 = internal global i32 0, align 4

; Function Attrs: null_pointer_is_valid sspstrong uwtable
define internal ptr @get_do_address_ctx(ptr noundef %0) #0 {
  %2 = alloca ptr, align 8
  %3 = alloca ptr, align 8
  store ptr %0, ptr %2, align 8
  call void @llvm.lifetime.start.p0(i64 8, ptr %3) #5
  store ptr null, ptr %3, align 8
  %4 = load ptr, ptr %2, align 8
  %5 = getelementptr inbounds nuw %struct._asn1_ctx_t, ptr %4, i32 0, i32 3
  %6 = load ptr, ptr %5, align 8
  %7 = getelementptr inbounds nuw %struct._packet_info, ptr %6, i32 0, i32 51
  %8 = load ptr, ptr %7, align 8
  %9 = load ptr, ptr %2, align 8
  %10 = getelementptr inbounds nuw %struct._asn1_ctx_t, ptr %9, i32 0, i32 3
  %11 = load ptr, ptr %10, align 8
  %12 = load i32, ptr @proto_p1, align 4
  %13 = call ptr @p_get_proto_data(ptr noundef %8, ptr noundef %11, i32 noundef %12, i32 noundef 0)
  store ptr %13, ptr %3, align 8
  %14 = load ptr, ptr %3, align 8
  %15 = icmp ne ptr %14, null
  br i1 %15, label %21, label %16

16:                                               ; preds = %1
  %17 = load ptr, ptr %2, align 8
  %18 = getelementptr inbounds nuw %struct._asn1_ctx_t, ptr %17, i32 0, i32 9
  %19 = getelementptr inbounds nuw %struct.anon.2, ptr %18, i32 0, i32 2
  %20 = load ptr, ptr %19, align 8
  store ptr %20, ptr %3, align 8
  br label %21

21:                                               ; preds = %16, %1
  %22 = load ptr, ptr %3, align 8
  call void @llvm.lifetime.end.p0(i64 8, ptr %3) #5
  ret ptr %22
}

; Function Attrs: null_pointer_is_valid sspstrong uwtable
define internal void @do_address_str(ptr noundef %0, ptr noundef %1, ptr noundef %2) #0 {
  %4 = alloca ptr, align 8
  %5 = alloca ptr, align 8
  %6 = alloca ptr, align 8
  %7 = alloca ptr, align 8
  %8 = alloca ptr, align 8
  store ptr %0, ptr %4, align 8
  store ptr %1, ptr %5, align 8
  store ptr %2, ptr %6, align 8
  call void @llvm.lifetime.start.p0(i64 8, ptr %7) #5
  %9 = load ptr, ptr %6, align 8
  %10 = getelementptr inbounds nuw %struct._asn1_ctx_t, ptr %9, i32 0, i32 6
  %11 = load ptr, ptr %10, align 8
  store ptr %11, ptr %7, align 8
  call void @llvm.lifetime.start.p0(i64 8, ptr %8) #5
  %12 = load ptr, ptr %6, align 8
  %13 = call ptr @get_do_address_ctx(ptr noundef %12)
  store ptr %13, ptr %8, align 8
  %14 = load ptr, ptr %4, align 8
  %15 = load ptr, ptr %5, align 8
  %16 = load ptr, ptr %6, align 8
  call void @do_address(ptr noundef %14, ptr noundef %15, ptr noundef %16)
  %17 = load ptr, ptr %8, align 8
  %18 = icmp ne ptr %17, null
  br i1 %18, label %19, label %41

19:                                               ; preds = %3
  %20 = load ptr, ptr %8, align 8
  %21 = getelementptr inbounds nuw %struct.p1_address_ctx, ptr %20, i32 0, i32 0
  %22 = load i8, ptr %21, align 8, !range !6, !noundef !7
  %23 = trunc i8 %22 to i1
  br i1 %23, label %24, label %41

24:                                               ; preds = %19
  %25 = load ptr, ptr %7, align 8
  %26 = icmp ne ptr %25, null
  br i1 %26, label %27, label %41

27:                                               ; preds = %24
  %28 = load ptr, ptr %5, align 8
  %29 = icmp ne ptr %28, null
  br i1 %29, label %30, label %41

30:                                               ; preds = %27
  %31 = load ptr, ptr %7, align 8
  %32 = load ptr, ptr %6, align 8
  %33 = getelementptr inbounds nuw %struct._asn1_ctx_t, ptr %32, i32 0, i32 3
  %34 = load ptr, ptr %33, align 8
  %35 = getelementptr inbounds nuw %struct._packet_info, ptr %34, i32 0, i32 51
  %36 = load ptr, ptr %35, align 8
  %37 = load ptr, ptr %5, align 8
  %38 = load ptr, ptr %5, align 8
  %39 = call i32 @tvb_captured_length(ptr noundef %38)
  %40 = call ptr @tvb_format_text(ptr noundef %36, ptr noundef %37, i32 noundef 0, i32 noundef %39)
  call void @wmem_strbuf_append(ptr noundef %31, ptr noundef %40)
  br label %41

41:                                               ; preds = %30, %27, %24, %19, %3
  call void @llvm.lifetime.end.p0(i64 8, ptr %8) #5
  call void @llvm.lifetime.end.p0(i64 8, ptr %7) #5
  ret void
}