; Function Attrs: null_pointer_is_valid sspstrong uwtable
define internal fastcc void @do_address_str(ptr noundef %0, ptr noundef readonly captures(none) %1) unnamed_addr #0 {
  %3 = getelementptr inbounds nuw i8, ptr %1, i64 40
  %4 = load ptr, ptr %3, align 8
  %5 = getelementptr inbounds nuw i8, ptr %1, i64 16
  %6 = load ptr, ptr %5, align 8
  %7 = getelementptr inbounds nuw i8, ptr %6, i64 408
  %8 = load ptr, ptr %7, align 8
  %9 = load i32, ptr @proto_p1, align 4
  %10 = tail call ptr @p_get_proto_data(ptr noundef %8, ptr noundef %6, i32 noundef %9, i32 noundef 0)
  %.not.i = icmp eq ptr %10, null
  br i1 %.not.i, label %get_do_address_ctx.exit, label %get_do_address_ctx.exit.thread

get_do_address_ctx.exit.thread:                   ; preds = %2
  tail call fastcc void @do_address(ptr noundef nonnull @.str.1649, ptr noundef %0, ptr noundef %1)
  br label %13

get_do_address_ctx.exit:                          ; preds = %2
  %11 = getelementptr inbounds nuw i8, ptr %1, i64 136
  %12 = load ptr, ptr %11, align 8
  tail call fastcc void @do_address(ptr noundef nonnull @.str.1649, ptr noundef %0, ptr noundef %1)
  %.not = icmp eq ptr %12, null
  br i1 %.not, label %24, label %13

13:                                               ; preds = %get_do_address_ctx.exit.thread, %get_do_address_ctx.exit
  %.0.i3 = phi ptr [ %10, %get_do_address_ctx.exit.thread ], [ %12, %get_do_address_ctx.exit ]
  %14 = load i8, ptr %.0.i3, align 8, !range !6, !noundef !7
  %15 = trunc nuw i8 %14 to i1
  %16 = icmp ne ptr %4, null
  %or.cond = select i1 %15, i1 %16, i1 false
  %17 = icmp ne ptr %0, null
  %or.cond3 = and i1 %17, %or.cond
  br i1 %or.cond3, label %18, label %24

18:                                               ; preds = %13
  %19 = load ptr, ptr %5, align 8
  %20 = getelementptr inbounds nuw i8, ptr %19, i64 408
  %21 = load ptr, ptr %20, align 8
  %22 = tail call i32 @tvb_captured_length(ptr noundef nonnull %0)
  %23 = tail call ptr @tvb_format_text(ptr noundef %21, ptr noundef nonnull %0, i32 noundef 0, i32 noundef %22)
  tail call void @wmem_strbuf_append(ptr noundef nonnull %4, ptr noundef %23)
  br label %24

24:                                               ; preds = %18, %13, %get_do_address_ctx.exit
  ret void
}